target datalayout = "e-m:e-p270:32:32-p271:32:32-p272:64:64-i64:64-i128:128-f80:128-n8:16:32:64-S128"
target triple = "x86_64-pc-linux-gnu"

%struct.mpd_t = type { i8, i64, i64, i64, i64, ptr }

@MPD_MINALLOC = external hidden global i64, align 8

; Function Attrs: alwaysinline nounwind uwtable
define hidden i32 @mpd_isstatic_data(ptr noundef %0) #1 {
  %2 = alloca ptr, align 8
  store ptr %0, ptr %2, align 8, !tbaa !7
  %3 = load ptr, ptr %2, align 8, !tbaa !7
  %4 = getelementptr inbounds nuw %struct.mpd_t, ptr %3, i32 0, i32 0
  %5 = load i8, ptr %4, align 8, !tbaa !25
  %6 = zext i8 %5 to i32
  %7 = and i32 %6, 32
  ret i32 %7
}

; Function Attrs: nounwind uwtable
define hidden void @mpd_qsset_ssize(ptr noundef %0, i64 noundef %1, ptr noundef %2, ptr noundef %3) #0 {
  %5 = alloca ptr, align 8
  %6 = alloca i64, align 8
  %7 = alloca ptr, align 8
  %8 = alloca ptr, align 8
  %9 = alloca i64, align 8
  %10 = alloca i8, align 1
  store ptr %0, ptr %5, align 8, !tbaa !7
  store i64 %1, ptr %6, align 8, !tbaa !3
  store ptr %2, ptr %7, align 8, !tbaa !14
  store ptr %3, ptr %8, align 8, !tbaa !29
  call void @llvm.lifetime.start.p0(i64 8, ptr %9) #10
  call void @llvm.lifetime.start.p0(i64 1, ptr %10) #10
  store i8 0, ptr %10, align 1, !tbaa !32
  %11 = load i64, ptr %6, align 8, !tbaa !3
  %12 = icmp slt i64 %11, 0
  br i1 %12, label %13, label %21

13:                                               ; preds = %4
  %14 = load i64, ptr %6, align 8, !tbaa !3
  %15 = icmp eq i64 %14, -9223372036854775808
  br i1 %15, label %16, label %17

16:                                               ; preds = %13
  store i64 -9223372036854775808, ptr %9, align 8, !tbaa !3
  br label %20

17:                                               ; preds = %13
  %18 = load i64, ptr %6, align 8, !tbaa !3
  %19 = sub i64 0, %18
  store i64 %19, ptr %9, align 8, !tbaa !3
  br label %20

20:                                               ; preds = %17, %16
  store i8 1, ptr %10, align 1, !tbaa !32
  br label %23

21:                                               ; preds = %4
  %22 = load i64, ptr %6, align 8, !tbaa !3
  store i64 %22, ptr %9, align 8, !tbaa !3
  br label %23

23:                                               ; preds = %21, %20
  %24 = load ptr, ptr %5, align 8, !tbaa !7
  %25 = load i8, ptr %10, align 1, !tbaa !32
  %26 = load i64, ptr %9, align 8, !tbaa !3
  call void @_ssettriple(ptr noundef %24, i8 noundef zeroext %25, i64 noundef %26, i64 noundef 0)
  %27 = load ptr, ptr %5, align 8, !tbaa !7
  %28 = load ptr, ptr %7, align 8, !tbaa !14
  %29 = load ptr, ptr %8, align 8, !tbaa !29
  call void @mpd_qfinalize(ptr noundef %27, ptr noundef %28, ptr noundef %29)
  call void @llvm.lifetime.end.p0(i64 1, ptr %10) #10
  call void @llvm.lifetime.end.p0(i64 8, ptr %9) #10
  ret void
}

; Function Attrs: alwaysinline nounwind uwtable
define hidden i64 @mpd_msword(ptr noundef %0) #1 {
  %2 = alloca ptr, align 8
  store ptr %0, ptr %2, align 8, !tbaa !7
  %3 = load ptr, ptr %2, align 8, !tbaa !7
  %4 = getelementptr inbounds nuw %struct.mpd_t, ptr %3, i32 0, i32 5
  %5 = load ptr, ptr %4, align 8, !tbaa !21
  %6 = load ptr, ptr %2, align 8, !tbaa !7
  %7 = getelementptr inbounds nuw %struct.mpd_t, ptr %6, i32 0, i32 3
  %8 = load i64, ptr %7, align 8, !tbaa !22
  %9 = sub i64 %8, 1
  %10 = getelementptr i64, ptr %5, i64 %9
  %11 = load i64, ptr %10, align 8, !tbaa !3
  ret i64 %11
}

; Function Attrs: alwaysinline nounwind uwtable
define hidden void @mpd_minalloc(ptr noundef %0) #1 {
  %2 = alloca ptr, align 8
  %3 = alloca i8, align 1
  store ptr %0, ptr %2, align 8, !tbaa !7
  %4 = load ptr, ptr %2, align 8, !tbaa !7
  %5 = call i32 @mpd_isstatic_data(ptr noundef %4)
  %6 = icmp ne i32 %5, 0
  br i1 %6, label %28, label %7

7:                                                ; preds = %1
  %8 = load ptr, ptr %2, align 8, !tbaa !7
  %9 = getelementptr inbounds nuw %struct.mpd_t, ptr %8, i32 0, i32 4
  %10 = load i64, ptr %9, align 8, !tbaa !31
  %11 = load i64, ptr @MPD_MINALLOC, align 8, !tbaa !3
  %12 = icmp sgt i64 %10, %11
  br i1 %12, label %13, label %28

13:                                               ; preds = %7
  call void @llvm.lifetime.start.p0(i64 1, ptr %3) #10
  store i8 0, ptr %3, align 1, !tbaa !32
  %14 = load ptr, ptr %2, align 8, !tbaa !7
  %15 = getelementptr inbounds nuw %struct.mpd_t, ptr %14, i32 0, i32 5
  %16 = load ptr, ptr %15, align 8, !tbaa !21
  %17 = load i64, ptr @MPD_MINALLOC, align 8, !tbaa !3
  %18 = call ptr @mpd_realloc(ptr noundef %16, i64 noundef %17, i64 noundef 8, ptr noundef %3)
  %19 = load ptr, ptr %2, align 8, !tbaa !7
  %20 = getelementptr inbounds nuw %struct.mpd_t, ptr %19, i32 0, i32 5
  store ptr %18, ptr %20, align 8, !tbaa !21
  %21 = load i8, ptr %3, align 1, !tbaa !32
  %22 = icmp ne i8 %21, 0
  br i1 %22, label %27, label %23

23:                                               ; preds = %13
  %24 = load i64, ptr @MPD_MINALLOC, align 8, !tbaa !3
  %25 = load ptr, ptr %2, align 8, !tbaa !7
  %26 = getelementptr inbounds nuw %struct.mpd_t, ptr %25, i32 0, i32 4
  store i64 %24, ptr %26, align 8, !tbaa !31
  br label %27

27:                                               ; preds = %23, %13
  call void @llvm.lifetime.end.p0(i64 1, ptr %3) #10
  br label %28

28:                                               ; preds = %27, %7, %1
  ret void
}

; Function Attrs: nounwind uwtable
define hidden void @mpd_qset_ssize(ptr noundef %0, i64 noundef %1, ptr noundef %2, ptr noundef %3) #0 {
  %5 = alloca ptr, align 8
  %6 = alloca i64, align 8
  %7 = alloca ptr, align 8
  %8 = alloca ptr, align 8
  store ptr %0, ptr %5, align 8, !tbaa !7
  store i64 %1, ptr %6, align 8, !tbaa !3
  store ptr %2, ptr %7, align 8, !tbaa !14
  store ptr %3, ptr %8, align 8, !tbaa !29
  %9 = load ptr, ptr %5, align 8, !tbaa !7
  call void @mpd_minalloc(ptr noundef %9)
  %10 = load ptr, ptr %5, align 8, !tbaa !7
  %11 = load i64, ptr %6, align 8, !tbaa !3
  %12 = load ptr, ptr %7, align 8, !tbaa !14
  %13 = load ptr, ptr %8, align 8, !tbaa !29
  call void @mpd_qsset_ssize(ptr noundef %10, i64 noundef %11, ptr noundef %12, ptr noundef %13)
  ret void
}

; Function Attrs: alwaysinline nounwind uwtable
define hidden i64 @mpd_adjexp(ptr noundef %0) #1 {
  %2 = alloca ptr, align 8
  store ptr %0, ptr %2, align 8, !tbaa !7
  %3 = load ptr, ptr %2, align 8, !tbaa !7
  %4 = getelementptr inbounds nuw %struct.mpd_t, ptr %3, i32 0, i32 1
  %5 = load i64, ptr %4, align 8, !tbaa !10
  %6 = load ptr, ptr %2, align 8, !tbaa !7
  %7 = getelementptr inbounds nuw %struct.mpd_t, ptr %6, i32 0, i32 2
  %8 = load i64, ptr %7, align 8, !tbaa !13
  %9 = add i64 %5, %8
  %10 = sub i64 %9, 1
  ret i64 %10
}

; Function Attrs: alwaysinline nounwind uwtable
define hidden i32 @mpd_iszerocoeff(ptr noundef %0) #1 {
  %2 = alloca ptr, align 8
  store ptr %0, ptr %2, align 8, !tbaa !7
  %3 = load ptr, ptr %2, align 8, !tbaa !7
  %4 = call i64 @mpd_msword(ptr noundef %3)
  %5 = icmp eq i64 %4, 0
  %6 = zext i1 %5 to i32
  ret i32 %6
}

; Function Attrs: nounwind uwtable
define hidden void @mpd_setspecial(ptr noundef %0, i8 noundef zeroext %1, i8 noundef zeroext %2) #0 {
  %4 = alloca ptr, align 8
  %5 = alloca i8, align 1
  %6 = alloca i8, align 1
  store ptr %0, ptr %4, align 8, !tbaa !7
  store i8 %1, ptr %5, align 1, !tbaa !32
  store i8 %2, ptr %6, align 1, !tbaa !32
  %7 = load ptr, ptr %4, align 8, !tbaa !7
  call void @mpd_minalloc(ptr noundef %7)
  %8 = load ptr, ptr %4, align 8, !tbaa !7
  %9 = getelementptr inbounds nuw %struct.mpd_t, ptr %8, i32 0, i32 0
  %10 = load i8, ptr %9, align 8, !tbaa !25
  %11 = zext i8 %10 to i32
  %12 = and i32 %11, -16
  %13 = trunc i32 %12 to i8
  store i8 %13, ptr %9, align 8, !tbaa !25
  %14 = load i8, ptr %5, align 1, !tbaa !32
  %15 = zext i8 %14 to i32
  %16 = load i8, ptr %6, align 1, !tbaa !32
  %17 = zext i8 %16 to i32
  %18 = or i32 %15, %17
  %19 = load ptr, ptr %4, align 8, !tbaa !7
  %20 = getelementptr inbounds nuw %struct.mpd_t, ptr %19, i32 0, i32 0
  %21 = load i8, ptr %20, align 8, !tbaa !25
  %22 = zext i8 %21 to i32
  %23 = or i32 %22, %18
  %24 = trunc i32 %23 to i8
  store i8 %24, ptr %20, align 8, !tbaa !25
  %25 = load ptr, ptr %4, align 8, !tbaa !7
  %26 = getelementptr inbounds nuw %struct.mpd_t, ptr %25, i32 0, i32 3
  store i64 0, ptr %26, align 8, !tbaa !22
  %27 = load ptr, ptr %4, align 8, !tbaa !7
  %28 = getelementptr inbounds nuw %struct.mpd_t, ptr %27, i32 0, i32 2
  store i64 0, ptr %28, align 8, !tbaa !13
  %29 = load ptr, ptr %4, align 8, !tbaa !7
  %30 = getelementptr inbounds nuw %struct.mpd_t, ptr %29, i32 0, i32 1
  store i64 0, ptr %30, align 8, !tbaa !10
  ret void
}

; Function Attrs: alwaysinline nounwind uwtable
define hidden i32 @mpd_isspecial(ptr noundef %0) #1 {
  %2 = alloca ptr, align 8
  store ptr %0, ptr %2, align 8, !tbaa !7
  %3 = load ptr, ptr %2, align 8, !tbaa !7
  %4 = getelementptr inbounds nuw %struct.mpd_t, ptr %3, i32 0, i32 0
  %5 = load i8, ptr %4, align 8, !tbaa !25
  %6 = zext i8 %5 to i32
  %7 = and i32 %6, 14
  ret i32 %7
}

; Function Attrs: nounwind uwtable
define hidden void @mpd_qlogb(ptr noundef %0, ptr noundef %1, ptr noundef %2, ptr noundef %3) #0 {
  %5 = alloca ptr, align 8
  %6 = alloca ptr, align 8
  %7 = alloca ptr, align 8
  %8 = alloca ptr, align 8
  store ptr %0, ptr %5, align 8, !tbaa !7
  store ptr %1, ptr %6, align 8, !tbaa !7
  store ptr %2, ptr %7, align 8, !tbaa !14
  store ptr %3, ptr %8, align 8, !tbaa !29
  %9 = load ptr, ptr %6, align 8, !tbaa !7
  %10 = call i32 @mpd_isspecial(ptr noundef %9)
  %11 = icmp ne i32 %10, 0
  br i1 %11, label %12, label %22

12:                                               ; preds = %4
  %13 = load ptr, ptr %5, align 8, !tbaa !7
  %14 = load ptr, ptr %6, align 8, !tbaa !7
  %15 = load ptr, ptr %7, align 8, !tbaa !14
  %16 = load ptr, ptr %8, align 8, !tbaa !29
  %17 = call i32 @mpd_qcheck_nan(ptr noundef %13, ptr noundef %14, ptr noundef %15, ptr noundef %16)
  %18 = icmp ne i32 %17, 0
  br i1 %18, label %19, label %20

19:                                               ; preds = %12
  br label %38

20:                                               ; preds = %12
  %21 = load ptr, ptr %5, align 8, !tbaa !7
  call void @mpd_setspecial(ptr noundef %21, i8 noundef zeroext 0, i8 noundef zeroext 2)
  br label %38

22:                                               ; preds = %4
  %23 = load ptr, ptr %6, align 8, !tbaa !7
  %24 = call i32 @mpd_iszerocoeff(ptr noundef %23)
  %25 = icmp ne i32 %24, 0
  br i1 %25, label %26, label %31

26:                                               ; preds = %22
  %27 = load ptr, ptr %5, align 8, !tbaa !7
  call void @mpd_setspecial(ptr noundef %27, i8 noundef zeroext 1, i8 noundef zeroext 2)
  %28 = load ptr, ptr %8, align 8, !tbaa !29
  %29 = load i32, ptr %28, align 4, !tbaa !23
  %30 = or i32 %29, 4
  store i32 %30, ptr %28, align 4, !tbaa !23
  br label %37

31:                                               ; preds = %22
  %32 = load ptr, ptr %5, align 8, !tbaa !7
  %33 = load ptr, ptr %6, align 8, !tbaa !7
  %34 = call i64 @mpd_adjexp(ptr noundef %33)
  %35 = load ptr, ptr %7, align 8, !tbaa !14
  %36 = load ptr, ptr %8, align 8, !tbaa !29
  call void @mpd_qset_ssize(ptr noundef %32, i64 noundef %34, ptr noundef %35, ptr noundef %36)
  br label %37

37:                                               ; preds = %31, %26
  br label %38

38:                                               ; preds = %19, %37, %20
  ret void
}