; Function Attrs: nounwind uwtable
define hidden void @mpd_qlogb(ptr noundef %0, ptr noundef %1, ptr noundef readonly captures(none) %2, ptr noundef %3) local_unnamed_addr #10 {
  %5 = alloca i8, align 1
  %6 = alloca i8, align 1
  %7 = alloca i8, align 1
  %8 = load i8, ptr %1, align 8, !tbaa !19
  %9 = and i8 %8, 14
  %.not = icmp eq i8 %9, 0
  br i1 %.not, label %32, label %10

10:                                               ; preds = %4
  %11 = tail call i32 @mpd_qcheck_nan(ptr noundef %0, ptr noundef nonnull %1, ptr noundef %2, ptr noundef %3)
  %.not14 = icmp eq i32 %11, 0
  br i1 %.not14, label %12, label %86

12:                                               ; preds = %10
  %13 = load i8, ptr %0, align 8, !tbaa !19
  %14 = and i8 %13, 32
  %.not.i.i = icmp eq i8 %14, 0
  br i1 %.not.i.i, label %15, label %mpd_setspecial.exit

15:                                               ; preds = %12
  %16 = getelementptr inbounds nuw i8, ptr %0, i64 32
  %17 = load i64, ptr %16, align 8, !tbaa !21
  %18 = load i64, ptr @MPD_MINALLOC, align 8, !tbaa !3
  %19 = icmp sgt i64 %17, %18
  br i1 %19, label %20, label %mpd_setspecial.exit

20:                                               ; preds = %15
  call void @llvm.lifetime.start.p0(i64 1, ptr nonnull %7) #33
  store i8 0, ptr %7, align 1, !tbaa !22
  %21 = getelementptr inbounds nuw i8, ptr %0, i64 40
  %22 = load ptr, ptr %21, align 8, !tbaa !17
  %23 = call ptr @mpd_realloc(ptr noundef %22, i64 noundef %18, i64 noundef 8, ptr noundef nonnull %7) #33
  store ptr %23, ptr %21, align 8, !tbaa !17
  %24 = load i8, ptr %7, align 1, !tbaa !22
  %.not5.i.i = icmp eq i8 %24, 0
  br i1 %.not5.i.i, label %25, label %27

25:                                               ; preds = %20
  %26 = load i64, ptr @MPD_MINALLOC, align 8, !tbaa !3
  store i64 %26, ptr %16, align 8, !tbaa !21
  br label %27

27:                                               ; preds = %25, %20
  call void @llvm.lifetime.end.p0(i64 1, ptr nonnull %7) #33
  %.pre.i = load i8, ptr %0, align 8, !tbaa !19
  br label %mpd_setspecial.exit

mpd_setspecial.exit:                              ; preds = %12, %15, %27
  %28 = phi i8 [ %13, %12 ], [ %13, %15 ], [ %.pre.i, %27 ]
  %29 = and i8 %28, -16
  %30 = or disjoint i8 %29, 2
  store i8 %30, ptr %0, align 8, !tbaa !19
  %31 = getelementptr inbounds nuw i8, ptr %0, i64 8
  call void @llvm.memset.p0.i64(ptr noundef nonnull align 8 dereferenceable(24) %31, i8 0, i64 24, i1 false)
  br label %86

32:                                               ; preds = %4
  %33 = getelementptr inbounds nuw i8, ptr %1, i64 40
  %34 = load ptr, ptr %33, align 8, !tbaa !17
  %35 = getelementptr inbounds nuw i8, ptr %1, i64 24
  %36 = load i64, ptr %35, align 8, !tbaa !18
  %37 = getelementptr i64, ptr %34, i64 %36
  %38 = getelementptr i8, ptr %37, i64 -8
  %39 = load i64, ptr %38, align 8, !tbaa !3
  %.not21 = icmp eq i64 %39, 0
  br i1 %.not21, label %40, label %62

40:                                               ; preds = %32
  %41 = load i8, ptr %0, align 8, !tbaa !19
  %42 = and i8 %41, 32
  %.not.i.i15 = icmp eq i8 %42, 0
  br i1 %.not.i.i15, label %43, label %mpd_setspecial.exit18

43:                                               ; preds = %40
  %44 = getelementptr inbounds nuw i8, ptr %0, i64 32
  %45 = load i64, ptr %44, align 8, !tbaa !21
  %46 = load i64, ptr @MPD_MINALLOC, align 8, !tbaa !3
  %47 = icmp sgt i64 %45, %46
  br i1 %47, label %48, label %mpd_setspecial.exit18

48:                                               ; preds = %43
  call void @llvm.lifetime.start.p0(i64 1, ptr nonnull %6) #33
  store i8 0, ptr %6, align 1, !tbaa !22
  %49 = getelementptr inbounds nuw i8, ptr %0, i64 40
  %50 = load ptr, ptr %49, align 8, !tbaa !17
  %51 = call ptr @mpd_realloc(ptr noundef %50, i64 noundef %46, i64 noundef 8, ptr noundef nonnull %6) #33
  store ptr %51, ptr %49, align 8, !tbaa !17
  %52 = load i8, ptr %6, align 1, !tbaa !22
  %.not5.i.i16 = icmp eq i8 %52, 0
  br i1 %.not5.i.i16, label %53, label %55

53:                                               ; preds = %48
  %54 = load i64, ptr @MPD_MINALLOC, align 8, !tbaa !3
  store i64 %54, ptr %44, align 8, !tbaa !21
  br label %55

55:                                               ; preds = %53, %48
  call void @llvm.lifetime.end.p0(i64 1, ptr nonnull %6) #33
  %.pre.i17 = load i8, ptr %0, align 8, !tbaa !19
  br label %mpd_setspecial.exit18

mpd_setspecial.exit18:                            ; preds = %40, %43, %55
  %56 = phi i8 [ %41, %40 ], [ %41, %43 ], [ %.pre.i17, %55 ]
  %57 = and i8 %56, -16
  %58 = or disjoint i8 %57, 3
  store i8 %58, ptr %0, align 8, !tbaa !19
  %59 = getelementptr inbounds nuw i8, ptr %0, i64 8
  call void @llvm.memset.p0.i64(ptr noundef nonnull align 8 dereferenceable(24) %59, i8 0, i64 24, i1 false)
  %60 = load i32, ptr %3, align 4, !tbaa !23
  %61 = or i32 %60, 4
  store i32 %61, ptr %3, align 4, !tbaa !23
  br label %86

62:                                               ; preds = %32
  %63 = getelementptr inbounds nuw i8, ptr %1, i64 8
  %64 = load i64, ptr %63, align 8, !tbaa !7
  %65 = getelementptr inbounds nuw i8, ptr %1, i64 16
  %66 = load i64, ptr %65, align 8, !tbaa !11
  %67 = add i64 %66, %64
  %68 = add i64 %67, -1
  %69 = load i8, ptr %0, align 8, !tbaa !19
  %70 = and i8 %69, 32
  %.not.i.i19 = icmp eq i8 %70, 0
  br i1 %.not.i.i19, label %71, label %mpd_minalloc.exit.i

71:                                               ; preds = %62
  %72 = getelementptr inbounds nuw i8, ptr %0, i64 32
  %73 = load i64, ptr %72, align 8, !tbaa !21
  %74 = load i64, ptr @MPD_MINALLOC, align 8, !tbaa !3
  %75 = icmp sgt i64 %73, %74
  br i1 %75, label %76, label %mpd_minalloc.exit.i

76:                                               ; preds = %71
  call void @llvm.lifetime.start.p0(i64 1, ptr nonnull %5) #33
  store i8 0, ptr %5, align 1, !tbaa !22
  %77 = getelementptr inbounds nuw i8, ptr %0, i64 40
  %78 = load ptr, ptr %77, align 8, !tbaa !17
  %79 = call ptr @mpd_realloc(ptr noundef %78, i64 noundef %74, i64 noundef 8, ptr noundef nonnull %5) #33
  store ptr %79, ptr %77, align 8, !tbaa !17
  %80 = load i8, ptr %5, align 1, !tbaa !22
  %.not5.i.i20 = icmp eq i8 %80, 0
  br i1 %.not5.i.i20, label %81, label %83

81:                                               ; preds = %76
  %82 = load i64, ptr @MPD_MINALLOC, align 8, !tbaa !3
  store i64 %82, ptr %72, align 8, !tbaa !21
  br label %83

83:                                               ; preds = %81, %76
  call void @llvm.lifetime.end.p0(i64 1, ptr nonnull %5) #33
  br label %mpd_minalloc.exit.i

mpd_minalloc.exit.i:                              ; preds = %83, %71, %62
  %84 = icmp slt i64 %68, 0
  br i1 %84, label %.split11.i.i, label %.split.i.i

.split11.i.i:                                     ; preds = %mpd_minalloc.exit.i
  %85 = sub i64 1, %67
  call fastcc void @_ssettriple(ptr noundef nonnull %0, i8 noundef zeroext 1, i64 noundef %85, i64 noundef 0)
  br label %mpd_qset_ssize.exit

.split.i.i:                                       ; preds = %mpd_minalloc.exit.i
  call fastcc void @_ssettriple(ptr noundef nonnull %0, i8 noundef zeroext 0, i64 noundef %68, i64 noundef 0)
  br label %mpd_qset_ssize.exit

mpd_qset_ssize.exit:                              ; preds = %.split11.i.i, %.split.i.i
  call void @mpd_qfinalize(ptr noundef nonnull %0, ptr noundef readonly %2, ptr noundef %3)
  br label %86

86:                                               ; preds = %mpd_setspecial.exit18, %mpd_qset_ssize.exit, %10, %mpd_setspecial.exit
  ret void
}